target datalayout = "e-m:e-p270:32:32-p271:32:32-p272:64:64-i64:64-i128:128-f80:128-n8:16:32:64-S128"
target triple = "x86_64-pc-linux-gnu"

%class.ReallocMark = type { i8 }
%class.UnionFind = type <{ i32, i32, ptr, %class.ReallocMark, [7 x i8] }>

; Function Attrs: mustprogress nounwind uwtable
define linkonce_odr hidden noundef i32 @_ZNK9UnionFind6lookupEj(ptr noundef nonnull align 8 dereferenceable(17) %0, i32 noundef %1) #1 comdat align 2 {
  %3 = alloca ptr, align 8
  %4 = alloca i32, align 4
  store ptr %0, ptr %3, align 8
  store i32 %1, ptr %4, align 4
  %5 = load ptr, ptr %3, align 8
  %6 = getelementptr inbounds %class.UnionFind, ptr %5, i32 0, i32 2
  %7 = load ptr, ptr %6, align 8
  %8 = load i32, ptr %4, align 4
  %9 = zext i32 %8 to i64
  %10 = getelementptr inbounds i32, ptr %7, i64 %9
  %11 = load i32, ptr %10, align 4
  ret i32 %11
}

; Function Attrs: mustprogress nounwind uwtable
define hidden noundef i32 @_ZNK9UnionFind10Find_constEj(ptr noundef nonnull align 8 dereferenceable(17) %0, i32 noundef %1) #1 align 2 {
  %3 = alloca i32, align 4
  %4 = alloca ptr, align 8
  %5 = alloca i32, align 4
  %6 = alloca i32, align 4
  store ptr %0, ptr %4, align 8
  store i32 %1, ptr %5, align 4
  %7 = load ptr, ptr %4, align 8
  %8 = load i32, ptr %5, align 4
  %9 = icmp eq i32 %8, 0
  br i1 %9, label %10, label %12

10:                                               ; preds = %2
  %11 = load i32, ptr %5, align 4
  store i32 %11, ptr %3, align 4
  br label %32

12:                                               ; preds = %2
  %13 = load i32, ptr %5, align 4
  %14 = getelementptr inbounds %class.UnionFind, ptr %7, i32 0, i32 1
  %15 = load i32, ptr %14, align 4
  %16 = icmp uge i32 %13, %15
  br i1 %16, label %17, label %19

17:                                               ; preds = %12
  %18 = load i32, ptr %5, align 4
  store i32 %18, ptr %3, align 4
  br label %32

19:                                               ; preds = %12
  %20 = load i32, ptr %5, align 4
  %21 = call noundef i32 @_ZNK9UnionFind6lookupEj(ptr noundef nonnull align 8 dereferenceable(17) %7, i32 noundef %20)
  store i32 %21, ptr %6, align 4
  br label %22

22:                                               ; preds = %26, %19
  %23 = load i32, ptr %6, align 4
  %24 = load i32, ptr %5, align 4
  %25 = icmp ne i32 %23, %24
  br i1 %25, label %26, label %30

26:                                               ; preds = %22
  %27 = load i32, ptr %6, align 4
  store i32 %27, ptr %5, align 4
  %28 = load i32, ptr %5, align 4
  %29 = call noundef i32 @_ZNK9UnionFind6lookupEj(ptr noundef nonnull align 8 dereferenceable(17) %7, i32 noundef %28)
  store i32 %29, ptr %6, align 4
  br label %22, !llvm.loop !52

30:                                               ; preds = %22
  %31 = load i32, ptr %6, align 4
  store i32 %31, ptr %3, align 4
  br label %32

32:                                               ; preds = %30, %17, %10
  %33 = load i32, ptr %3, align 4
  ret i32 %33
}