; Function Attrs: mustprogress nofree norecurse nosync nounwind willreturn memory(read, inaccessiblemem: none) uwtable
define hidden noundef i32 @_ZNK9UnionFind10Find_constEj(ptr nocapture noundef nonnull readonly align 8 dereferenceable(17) %0, i32 noundef %1) local_unnamed_addr #3 align 2 {
  %3 = icmp eq i32 %1, 0
  br i1 %3, label %.loopexit, label %4

4:                                                ; preds = %2
  %5 = getelementptr inbounds i8, ptr %0, i64 4
  %6 = load i32, ptr %5, align 4
  %.not = icmp ugt i32 %6, %1
  br i1 %.not, label %7, label %.loopexit

7:                                                ; preds = %4
  %8 = getelementptr inbounds i8, ptr %0, i64 8
  %9 = load ptr, ptr %8, align 8
  br label %10

10:                                               ; preds = %10, %7
  %.011 = phi i32 [ %1, %7 ], [ %.0, %10 ]
  %.pn = zext i32 %.011 to i64
  %.0.in = getelementptr inbounds i32, ptr %9, i64 %.pn
  %.0 = load i32, ptr %.0.in, align 4
  %.not14 = icmp eq i32 %.0, %.011
  br i1 %.not14, label %.loopexit, label %10, !llvm.loop !56

.loopexit:                                        ; preds = %10, %4, %2
  %.012 = phi i32 [ 0, %2 ], [ %1, %4 ], [ %.011, %10 ]
  ret i32 %.012
}